target datalayout = "e-m:e-p270:32:32-p271:32:32-p272:64:64-i64:64-i128:128-f80:128-n8:16:32:64-S128"
target triple = "x86_64-pc-linux-gnu"

%struct._address = type { i32, i32, ptr, ptr }
%struct.profile = type { i16, i8, %struct._address, i32, i32, ptr, ptr, ptr, ptr, ptr, ptr, ptr, i32, ptr, ptr, ptr }
%struct.object = type { %struct.od_entry, ptr }
%struct.od_entry = type { i16, i16, [64 x i8], ptr, i64 }
%struct.object_mapping = type { %struct.anon, %struct.anon, i16, i16, i32, %struct.anon.0, ptr, ptr, [32 x i8] }
%struct.anon = type { i16, i8 }
%struct.anon.0 = type { i32, i32 }
%struct.subobject = type { %struct.range_admin_tag, %struct.od_entry }
%struct.range_admin_tag = type { i32, i32 }

@use_xdc_mappings = internal global i32 1, align 4

; Function Attrs: nounwind uwtable
define internal ptr @subobject_lookup(ptr noundef %0, i8 noundef zeroext %1) #0 {
  %3 = alloca ptr, align 8
  %4 = alloca ptr, align 8
  %5 = alloca i8, align 1
  store ptr %0, ptr %4, align 8
  store i8 %1, ptr %5, align 1
  %6 = load ptr, ptr %4, align 8
  %7 = icmp ne ptr %6, null
  br i1 %7, label %8, label %13

8:                                                ; preds = %2
  %9 = load ptr, ptr %4, align 8
  %10 = getelementptr inbounds %struct.object, ptr %9, i32 0, i32 1
  %11 = load ptr, ptr %10, align 8
  %12 = icmp ne ptr %11, null
  br i1 %12, label %14, label %13

13:                                               ; preds = %8, %2
  store ptr null, ptr %3, align 8
  br label %21

14:                                               ; preds = %8
  %15 = load ptr, ptr %4, align 8
  %16 = getelementptr inbounds %struct.object, ptr %15, i32 0, i32 1
  %17 = load ptr, ptr %16, align 8
  %18 = load i8, ptr %5, align 1
  %19 = zext i8 %18 to i32
  %20 = call ptr @epl_wmem_iarray_find(ptr noundef %17, i32 noundef %19)
  store ptr %20, ptr %3, align 8
  br label %21

21:                                               ; preds = %14, %13
  %22 = load ptr, ptr %3, align 8
  ret ptr %22
}

; Function Attrs: nounwind uwtable
define internal ptr @object_lookup(ptr noundef %0, i16 noundef zeroext %1) #0 {
  %3 = alloca ptr, align 8
  %4 = alloca ptr, align 8
  %5 = alloca i16, align 2
  store ptr %0, ptr %4, align 8
  store i16 %1, ptr %5, align 2
  %6 = load ptr, ptr %4, align 8
  %7 = icmp eq ptr %6, null
  br i1 %7, label %8, label %9

8:                                                ; preds = %2
  store ptr null, ptr %3, align 8
  br label %17

9:                                                ; preds = %2
  %10 = load ptr, ptr %4, align 8
  %11 = getelementptr inbounds %struct.profile, ptr %10, i32 0, i32 5
  %12 = load ptr, ptr %11, align 8
  %13 = load i16, ptr %5, align 2
  %14 = zext i16 %13 to i64
  %15 = inttoptr i64 %14 to ptr
  %16 = call ptr @wmem_map_lookup(ptr noundef %12, ptr noundef %15)
  store ptr %16, ptr %3, align 8
  br label %17

17:                                               ; preds = %9, %8
  %18 = load ptr, ptr %3, align 8
  ret ptr %18
}

; Function Attrs: nounwind uwtable
define hidden i32 @epl_profile_object_mappings_update(ptr noundef %0) #0 {
  %2 = alloca i32, align 4
  %3 = alloca ptr, align 8
  %4 = alloca i32, align 4
  %5 = alloca ptr, align 8
  %6 = alloca [3 x ptr], align 16
  %7 = alloca ptr, align 8
  %8 = alloca i32, align 4
  %9 = alloca i32, align 4
  %10 = alloca ptr, align 8
  %11 = alloca ptr, align 8
  %12 = alloca ptr, align 8
  store ptr %0, ptr %3, align 8
  store i32 0, ptr %4, align 4
  %13 = load i32, ptr @use_xdc_mappings, align 4
  %14 = icmp ne i32 %13, 0
  br i1 %14, label %16, label %15

15:                                               ; preds = %1
  store i32 0, ptr %2, align 4
  br label %89

16:                                               ; preds = %1
  %17 = load ptr, ptr %3, align 8
  %18 = getelementptr inbounds %struct.profile, ptr %17, i32 0, i32 14
  %19 = load ptr, ptr %18, align 8
  %20 = getelementptr [3 x ptr], ptr %6, i64 0, i64 0
  store ptr %19, ptr %20, align 16
  %21 = load ptr, ptr %3, align 8
  %22 = getelementptr inbounds %struct.profile, ptr %21, i32 0, i32 13
  %23 = load ptr, ptr %22, align 8
  %24 = getelementptr [3 x ptr], ptr %6, i64 0, i64 1
  store ptr %23, ptr %24, align 8
  %25 = getelementptr [3 x ptr], ptr %6, i64 0, i64 2
  store ptr null, ptr %25, align 16
  %26 = getelementptr inbounds [3 x ptr], ptr %6, i64 0, i64 0
  store ptr %26, ptr %7, align 8
  br label %27

27:                                               ; preds = %84, %16
  %28 = load ptr, ptr %7, align 8
  %29 = load ptr, ptr %28, align 8
  %30 = icmp ne ptr %29, null
  br i1 %30, label %31, label %87

31:                                               ; preds = %27
  %32 = load ptr, ptr %7, align 8
  %33 = load ptr, ptr %32, align 8
  %34 = call i32 @wmem_array_get_count(ptr noundef %33)
  store i32 %34, ptr %9, align 4
  %35 = load ptr, ptr %7, align 8
  %36 = load ptr, ptr %35, align 8
  %37 = call ptr @wmem_array_get_raw(ptr noundef %36)
  store ptr %37, ptr %5, align 8
  store i32 0, ptr %8, align 4
  br label %38

38:                                               ; preds = %80, %31
  %39 = load i32, ptr %8, align 4
  %40 = load i32, ptr %9, align 4
  %41 = icmp ult i32 %39, %40
  br i1 %41, label %42, label %83

42:                                               ; preds = %38
  %43 = load ptr, ptr %5, align 8
  %44 = load i32, ptr %8, align 4
  %45 = zext i32 %44 to i64
  %46 = getelementptr %struct.object_mapping, ptr %43, i64 %45
  store ptr %46, ptr %10, align 8
  %47 = load ptr, ptr %3, align 8
  %48 = load ptr, ptr %10, align 8
  %49 = getelementptr inbounds %struct.object_mapping, ptr %48, i32 0, i32 0
  %50 = getelementptr inbounds %struct.anon, ptr %49, i32 0, i32 0
  %51 = load i16, ptr %50, align 8
  %52 = call ptr @object_lookup(ptr noundef %47, i16 noundef zeroext %51)
  store ptr %52, ptr %11, align 8
  %53 = icmp ne ptr %52, null
  br i1 %53, label %55, label %54

54:                                               ; preds = %42
  br label %80

55:                                               ; preds = %42
  %56 = load ptr, ptr %11, align 8
  %57 = getelementptr inbounds %struct.object, ptr %56, i32 0, i32 0
  %58 = load ptr, ptr %10, align 8
  %59 = getelementptr inbounds %struct.object_mapping, ptr %58, i32 0, i32 6
  store ptr %57, ptr %59, align 8
  %60 = load ptr, ptr %10, align 8
  %61 = getelementptr inbounds %struct.object_mapping, ptr %60, i32 0, i32 6
  %62 = load ptr, ptr %61, align 8
  %63 = getelementptr inbounds %struct.od_entry, ptr %62, i32 0, i32 2
  %64 = getelementptr inbounds [64 x i8], ptr %63, i64 0, i64 0
  %65 = load ptr, ptr %10, align 8
  %66 = getelementptr inbounds %struct.object_mapping, ptr %65, i32 0, i32 7
  store ptr %64, ptr %66, align 8
  store i32 1, ptr %4, align 4
  %67 = load ptr, ptr %11, align 8
  %68 = load ptr, ptr %10, align 8
  %69 = getelementptr inbounds %struct.object_mapping, ptr %68, i32 0, i32 0
  %70 = getelementptr inbounds %struct.anon, ptr %69, i32 0, i32 1
  %71 = load i8, ptr %70, align 2
  %72 = call ptr @subobject_lookup(ptr noundef %67, i8 noundef zeroext %71)
  store ptr %72, ptr %12, align 8
  %73 = icmp ne ptr %72, null
  br i1 %73, label %75, label %74

74:                                               ; preds = %55
  br label %80

75:                                               ; preds = %55
  %76 = load ptr, ptr %12, align 8
  %77 = getelementptr inbounds %struct.subobject, ptr %76, i32 0, i32 1
  %78 = load ptr, ptr %10, align 8
  %79 = getelementptr inbounds %struct.object_mapping, ptr %78, i32 0, i32 6
  store ptr %77, ptr %79, align 8
  br label %80

80:                                               ; preds = %75, %74, %54
  %81 = load i32, ptr %8, align 4
  %82 = add i32 %81, 1
  store i32 %82, ptr %8, align 4
  br label %38, !llvm.loop !6

83:                                               ; preds = %38
  br label %84

84:                                               ; preds = %83
  %85 = load ptr, ptr %7, align 8
  %86 = getelementptr ptr, ptr %85, i32 1
  store ptr %86, ptr %7, align 8
  br label %27, !llvm.loop !7

87:                                               ; preds = %27
  %88 = load i32, ptr %4, align 4
  store i32 %88, ptr %2, align 4
  br label %89

89:                                               ; preds = %87, %15
  %90 = load i32, ptr %2, align 4
  ret i32 %90
}