; Function Attrs: nounwind uwtable
define hidden range(i32 0, 2) i32 @epl_profile_object_mappings_update(ptr noundef readonly captures(none) %0) local_unnamed_addr #2 {
  %2 = alloca [3 x ptr], align 16
  %3 = load i32, ptr @use_xdc_mappings, align 4
  %.not = icmp eq i32 %3, 0
  br i1 %.not, label %.loopexit, label %4

4:                                                ; preds = %1
  %5 = getelementptr inbounds nuw i8, ptr %0, i64 112
  %6 = load ptr, ptr %5, align 8
  store ptr %6, ptr %2, align 16
  %7 = getelementptr inbounds nuw i8, ptr %0, i64 104
  %8 = load ptr, ptr %7, align 8
  %9 = getelementptr inbounds nuw i8, ptr %2, i64 8
  store ptr %8, ptr %9, align 8
  %10 = getelementptr inbounds nuw i8, ptr %2, i64 16
  store ptr null, ptr %10, align 16
  %.not2838 = icmp eq ptr %6, null
  br i1 %.not2838, label %.loopexit, label %.lr.ph42.split.preheader

.lr.ph42.split.preheader:                         ; preds = %4
  %11 = getelementptr inbounds nuw i8, ptr %0, i64 40
  br label %.lr.ph42.split

.lr.ph42.split:                                   ; preds = %.lr.ph42.split.preheader, %._crit_edge.split
  %12 = phi ptr [ %35, %._crit_edge.split ], [ %6, %.lr.ph42.split.preheader ]
  %.02240 = phi i32 [ %.1.lcssa, %._crit_edge.split ], [ 0, %.lr.ph42.split.preheader ]
  %.02339 = phi ptr [ %34, %._crit_edge.split ], [ %2, %.lr.ph42.split.preheader ]
  %13 = tail call i32 @wmem_array_get_count(ptr noundef nonnull %12) #18
  %14 = load ptr, ptr %.02339, align 8
  %15 = tail call ptr @wmem_array_get_raw(ptr noundef %14) #18
  %.not45 = icmp eq i32 %13, 0
  br i1 %.not45, label %._crit_edge.split, label %object_lookup.exit.preheader

object_lookup.exit.preheader:                     ; preds = %.lr.ph42.split
  %wide.trip.count = zext i32 %13 to i64
  br label %object_lookup.exit

object_lookup.exit:                               ; preds = %object_lookup.exit.preheader, %object_lookup.exit.thread
  %indvars.iv = phi i64 [ 0, %object_lookup.exit.preheader ], [ %indvars.iv.next, %object_lookup.exit.thread ]
  %.137 = phi i32 [ %.02240, %object_lookup.exit.preheader ], [ %.2, %object_lookup.exit.thread ]
  %16 = getelementptr %struct.object_mapping, ptr %15, i64 %indvars.iv
  %17 = load i16, ptr %16, align 8
  %18 = load ptr, ptr %11, align 8
  %19 = zext i16 %17 to i64
  %20 = inttoptr i64 %19 to ptr
  %21 = tail call ptr @wmem_map_lookup(ptr noundef %18, ptr noundef %20) #18
  %.not29 = icmp eq ptr %21, null
  br i1 %.not29, label %object_lookup.exit.thread, label %22

22:                                               ; preds = %object_lookup.exit
  %23 = getelementptr inbounds nuw i8, ptr %16, i64 24
  store ptr %21, ptr %23, align 8
  %24 = getelementptr inbounds nuw i8, ptr %21, i64 4
  %25 = getelementptr inbounds nuw i8, ptr %16, i64 32
  store ptr %24, ptr %25, align 8
  %26 = getelementptr inbounds nuw i8, ptr %21, i64 88
  %27 = load ptr, ptr %26, align 8
  %.not6.i = icmp eq ptr %27, null
  br i1 %.not6.i, label %object_lookup.exit.thread, label %subobject_lookup.exit

subobject_lookup.exit:                            ; preds = %22
  %28 = getelementptr inbounds nuw i8, ptr %16, i64 2
  %29 = load i8, ptr %28, align 2
  %30 = zext i8 %29 to i32
  %31 = tail call ptr @epl_wmem_iarray_find(ptr noundef nonnull %27, i32 noundef %30) #18
  %.not30 = icmp eq ptr %31, null
  br i1 %.not30, label %object_lookup.exit.thread, label %32

32:                                               ; preds = %subobject_lookup.exit
  %33 = getelementptr inbounds nuw i8, ptr %31, i64 8
  store ptr %33, ptr %23, align 8
  br label %object_lookup.exit.thread

object_lookup.exit.thread:                        ; preds = %22, %subobject_lookup.exit, %object_lookup.exit, %32
  %.2 = phi i32 [ 1, %32 ], [ 1, %subobject_lookup.exit ], [ %.137, %object_lookup.exit ], [ 1, %22 ]
  %indvars.iv.next = add nuw nsw i64 %indvars.iv, 1
  %exitcond.not = icmp eq i64 %indvars.iv.next, %wide.trip.count
  br i1 %exitcond.not, label %._crit_edge.split, label %object_lookup.exit, !llvm.loop !7

._crit_edge.split:                                ; preds = %object_lookup.exit.thread, %.lr.ph42.split
  %.1.lcssa = phi i32 [ %.02240, %.lr.ph42.split ], [ %.2, %object_lookup.exit.thread ]
  %34 = getelementptr i8, ptr %.02339, i64 8
  %35 = load ptr, ptr %34, align 8
  %.not28 = icmp eq ptr %35, null
  br i1 %.not28, label %.loopexit, label %.lr.ph42.split, !llvm.loop !8

.loopexit:                                        ; preds = %._crit_edge.split, %4, %1
  %.0 = phi i32 [ 0, %1 ], [ 0, %4 ], [ %.1.lcssa, %._crit_edge.split ]
  ret i32 %.0
}